; Function Attrs: nounwind uwtable
define internal ptr @unary_not(ptr noundef %0) #0 {
  %2 = tail call i32 @PyObject_IsTrue(ptr noundef %0) #8
  %3 = icmp slt i32 %2, 0
  br i1 %3, label %7, label %4

4:                                                ; preds = %1
  %.not = icmp eq i32 %2, 0
  %5 = zext i1 %.not to i64
  %6 = tail call ptr @PyBool_FromLong(i64 noundef %5) #8
  br label %7

7:                                                ; preds = %1, %4
  %.0 = phi ptr [ %6, %4 ], [ null, %1 ]
  ret ptr %.0
}